; ModuleID = 'source-C-CXX/42/915.cpp'
source_filename = "source-C-CXX/42/915.cpp"
target datalayout = "e-m:e-p270:32:32-p271:32:32-p272:64:64-i64:64-f80:128-n8:16:32:64-S128"
target triple = "x86_64-pc-linux-gnu"

%"class.std::ios_base::Init" = type { i8 }
%"class.std::basic_istream" = type { i32 (...)**, i64, %"class.std::basic_ios" }
%"class.std::basic_ios" = type { %"class.std::ios_base", %"class.std::basic_ostream"*, i8, i8, %"class.std::basic_streambuf"*, %"class.std::ctype"*, %"class.std::num_put"*, %"class.std::num_get"* }
%"class.std::ios_base" = type { i32 (...)**, i64, i64, i32, i32, i32, %"struct.std::ios_base::_Callback_list"*, %"struct.std::ios_base::_Words", [8 x %"struct.std::ios_base::_Words"], i32, %"struct.std::ios_base::_Words"*, %"class.std::locale" }
%"struct.std::ios_base::_Callback_list" = type { %"struct.std::ios_base::_Callback_list"*, void (i32, %"class.std::ios_base"*, i32)*, i32, i32 }
%"struct.std::ios_base::_Words" = type { i8*, i64 }
%"class.std::locale" = type { %"class.std::locale::_Impl"* }
%"class.std::locale::_Impl" = type { i32, %"class.std::locale::facet"**, i64, %"class.std::locale::facet"**, i8** }
%"class.std::locale::facet" = type <{ i32 (...)**, i32, [4 x i8] }>
%"class.std::basic_ostream" = type { i32 (...)**, %"class.std::basic_ios" }
%"class.std::basic_streambuf" = type { i32 (...)**, i8*, i8*, i8*, i8*, i8*, i8*, %"class.std::locale" }
%"class.std::ctype" = type <{ %"class.std::locale::facet.base", [4 x i8], %struct.__locale_struct*, i8, [7 x i8], i32*, i32*, i16*, i8, [256 x i8], [256 x i8], i8, [6 x i8] }>
%"class.std::locale::facet.base" = type <{ i32 (...)**, i32 }>
%struct.__locale_struct = type { [13 x %struct.__locale_data*], i16*, i32*, i32*, [13 x i8*] }
%struct.__locale_data = type opaque
%"class.std::num_put" = type { %"class.std::locale::facet.base", [4 x i8] }
%"class.std::num_get" = type { %"class.std::locale::facet.base", [4 x i8] }

@_ZStL8__ioinit = internal global %"class.std::ios_base::Init" zeroinitializer, align 1
@__dso_handle = external hidden global i8
@_ZSt3cin = external global %"class.std::basic_istream", align 8
@_ZSt4cout = external global %"class.std::basic_ostream", align 8
@llvm.global_ctors = appending global [1 x { i32, void ()*, i8* }] [{ i32, void ()*, i8* } { i32 65535, void ()* @_GLOBAL__sub_I_915.cpp, i8* null }]

declare void @_ZNSt8ios_base4InitC1Ev(%"class.std::ios_base::Init"* nonnull align 1 dereferenceable(1)) unnamed_addr #0

; Function Attrs: nounwind
declare void @_ZNSt8ios_base4InitD1Ev(%"class.std::ios_base::Init"* nonnull align 1 dereferenceable(1)) unnamed_addr #1

; Function Attrs: nofree nounwind
declare i32 @__cxa_atexit(void (i8*)*, i8*, i8*) local_unnamed_addr #2

; Function Attrs: mustprogress nofree nounwind sspstrong uwtable
define dso_local i32 @_Z5primei(i32 %0) local_unnamed_addr #3 {
  %2 = and i32 %0, 1
  %3 = icmp eq i32 %2, 0
  br i1 %3, label %20, label %4

4:                                                ; preds = %1
  %5 = sitofp i32 %0 to double
  %6 = tail call double @sqrt(double %5) #9
  %7 = fcmp ult double %6, 3.000000e+00
  br i1 %7, label %20, label %12

8:                                                ; preds = %12
  %9 = sitofp i32 %16 to double
  %10 = tail call double @sqrt(double %5) #9
  %11 = fcmp ult double %10, %9
  br i1 %11, label %17, label %12, !llvm.loop !5

12:                                               ; preds = %4, %8
  %13 = phi i32 [ %16, %8 ], [ 3, %4 ]
  %14 = srem i32 %0, %13
  %15 = icmp eq i32 %14, 0
  %16 = add nuw nsw i32 %13, 2
  br i1 %15, label %17, label %8

17:                                               ; preds = %12, %8
  %18 = xor i1 %15, true
  %19 = zext i1 %18 to i32
  br label %20

20:                                               ; preds = %4, %17, %1
  %21 = phi i32 [ 0, %1 ], [ 1, %4 ], [ %19, %17 ]
  ret i32 %21
}

; Function Attrs: argmemonly mustprogress nofree nosync nounwind willreturn
declare void @llvm.lifetime.start.p0i8(i64 immarg, i8* nocapture) #4

; Function Attrs: mustprogress nofree nounwind willreturn
declare double @sqrt(double) local_unnamed_addr #5

; Function Attrs: argmemonly mustprogress nofree nosync nounwind willreturn
declare void @llvm.lifetime.end.p0i8(i64 immarg, i8* nocapture) #4

; Function Attrs: mustprogress norecurse sspstrong uwtable
define dso_local i32 @main() local_unnamed_addr #6 {
  %1 = alloca i8, align 1
  %2 = alloca i32, align 4
  %3 = bitcast i32* %2 to i8*
  call void @llvm.lifetime.start.p0i8(i64 4, i8* nonnull %3) #9
  %4 = call nonnull align 8 dereferenceable(16) %"class.std::basic_istream"* @_ZNSirsERi(%"class.std::basic_istream"* nonnull align 8 dereferenceable(16) @_ZSt3cin, i32* nonnull align 4 dereferenceable(4) %2)
  %5 = load i32, i32* %2, align 4, !tbaa !7
  %6 = icmp slt i32 %5, 6
  br i1 %6, label %79, label %7

7:                                                ; preds = %0, %74
  %8 = phi i32 [ %75, %74 ], [ 3, %0 ]
  %9 = sitofp i32 %8 to double
  %10 = call double @sqrt(double %9) #9
  %11 = fcmp ult double %10, 3.000000e+00
  br i1 %11, label %21, label %16

12:                                               ; preds = %16
  %13 = sitofp i32 %20 to double
  %14 = call double @sqrt(double %9) #9
  %15 = fcmp ult double %14, %13
  br i1 %15, label %21, label %16, !llvm.loop !5

16:                                               ; preds = %7, %12
  %17 = phi i32 [ %20, %12 ], [ 3, %7 ]
  %18 = urem i32 %8, %17
  %19 = icmp eq i32 %18, 0
  %20 = add nuw nsw i32 %17, 2
  br i1 %19, label %74, label %12

21:                                               ; preds = %12, %7
  %22 = load i32, i32* %2, align 4, !tbaa !7
  %23 = sub nsw i32 %22, %8
  %24 = and i32 %23, 1
  %25 = icmp eq i32 %24, 0
  br i1 %25, label %74, label %26

26:                                               ; preds = %21
  %27 = sitofp i32 %23 to double
  %28 = call double @sqrt(double %27) #9
  %29 = fcmp ult double %28, 3.000000e+00
  br i1 %29, label %39, label %34

30:                                               ; preds = %34
  %31 = sitofp i32 %38 to double
  %32 = call double @sqrt(double %27) #9
  %33 = fcmp ult double %32, %31
  br i1 %33, label %39, label %34, !llvm.loop !5

34:                                               ; preds = %26, %30
  %35 = phi i32 [ %38, %30 ], [ 3, %26 ]
  %36 = srem i32 %23, %35
  %37 = icmp eq i32 %36, 0
  %38 = add nuw nsw i32 %35, 2
  br i1 %37, label %74, label %30

39:                                               ; preds = %30, %26
  %40 = call nonnull align 8 dereferenceable(8) %"class.std::basic_ostream"* @_ZNSolsEi(%"class.std::basic_ostream"* nonnull align 8 dereferenceable(8) @_ZSt4cout, i32 %8)
  call void @llvm.lifetime.start.p0i8(i64 1, i8* nonnull %1)
  store i8 32, i8* %1, align 1, !tbaa !11
  %41 = call nonnull align 8 dereferenceable(8) %"class.std::basic_ostream"* @_ZSt16__ostream_insertIcSt11char_traitsIcEERSt13basic_ostreamIT_T0_ES6_PKS3_l(%"class.std::basic_ostream"* nonnull align 8 dereferenceable(8) %40, i8* nonnull %1, i64 1)
  call void @llvm.lifetime.end.p0i8(i64 1, i8* nonnull %1)
  %42 = load i32, i32* %2, align 4, !tbaa !7
  %43 = sub nsw i32 %42, %8
  %44 = call nonnull align 8 dereferenceable(8) %"class.std::basic_ostream"* @_ZNSolsEi(%"class.std::basic_ostream"* nonnull align 8 dereferenceable(8) %41, i32 %43)
  %45 = bitcast %"class.std::basic_ostream"* %44 to i8**
  %46 = load i8*, i8** %45, align 8, !tbaa !12
  %47 = getelementptr i8, i8* %46, i64 -24
  %48 = bitcast i8* %47 to i64*
  %49 = load i64, i64* %48, align 8
  %50 = bitcast %"class.std::basic_ostream"* %44 to i8*
  %51 = add nsw i64 %49, 240
  %52 = getelementptr inbounds i8, i8* %50, i64 %51
  %53 = bitcast i8* %52 to %"class.std::ctype"**
  %54 = load %"class.std::ctype"*, %"class.std::ctype"** %53, align 8, !tbaa !14
  %55 = icmp eq %"class.std::ctype"* %54, null
  br i1 %55, label %56, label %57

56:                                               ; preds = %39
  call void @_ZSt16__throw_bad_castv() #10
  unreachable

57:                                               ; preds = %39
  %58 = getelementptr inbounds %"class.std::ctype", %"class.std::ctype"* %54, i64 0, i32 8
  %59 = load i8, i8* %58, align 8, !tbaa !18
  %60 = icmp eq i8 %59, 0
  br i1 %60, label %64, label %61

61:                                               ; preds = %57
  %62 = getelementptr inbounds %"class.std::ctype", %"class.std::ctype"* %54, i64 0, i32 9, i64 10
  %63 = load i8, i8* %62, align 1, !tbaa !11
  br label %70

64:                                               ; preds = %57
  call void @_ZNKSt5ctypeIcE13_M_widen_initEv(%"class.std::ctype"* nonnull align 8 dereferenceable(570) %54)
  %65 = bitcast %"class.std::ctype"* %54 to i8 (%"class.std::ctype"*, i8)***
  %66 = load i8 (%"class.std::ctype"*, i8)**, i8 (%"class.std::ctype"*, i8)*** %65, align 8, !tbaa !12
  %67 = getelementptr inbounds i8 (%"class.std::ctype"*, i8)*, i8 (%"class.std::ctype"*, i8)** %66, i64 6
  %68 = load i8 (%"class.std::ctype"*, i8)*, i8 (%"class.std::ctype"*, i8)** %67, align 8
  %69 = call signext i8 %68(%"class.std::ctype"* nonnull align 8 dereferenceable(570) %54, i8 signext 10)
  br label %70

70:                                               ; preds = %61, %64
  %71 = phi i8 [ %63, %61 ], [ %69, %64 ]
  %72 = call nonnull align 8 dereferenceable(8) %"class.std::basic_ostream"* @_ZNSo3putEc(%"class.std::basic_ostream"* nonnull align 8 dereferenceable(8) %44, i8 signext %71)
  %73 = call nonnull align 8 dereferenceable(8) %"class.std::basic_ostream"* @_ZNSo5flushEv(%"class.std::basic_ostream"* nonnull align 8 dereferenceable(8) %72)
  br label %74

74:                                               ; preds = %16, %34, %21, %70
  %75 = add nuw nsw i32 %8, 2
  %76 = load i32, i32* %2, align 4, !tbaa !7
  %77 = sdiv i32 %76, 2
  %78 = icmp sgt i32 %75, %77
  br i1 %78, label %79, label %7, !llvm.loop !20

79:                                               ; preds = %74, %0
  call void @llvm.lifetime.end.p0i8(i64 4, i8* nonnull %3) #9
  ret i32 0
}

declare nonnull align 8 dereferenceable(16) %"class.std::basic_istream"* @_ZNSirsERi(%"class.std::basic_istream"* nonnull align 8 dereferenceable(16), i32* nonnull align 4 dereferenceable(4)) local_unnamed_addr #0

declare nonnull align 8 dereferenceable(8) %"class.std::basic_ostream"* @_ZNSolsEi(%"class.std::basic_ostream"* nonnull align 8 dereferenceable(8), i32) local_unnamed_addr #0

declare nonnull align 8 dereferenceable(8) %"class.std::basic_ostream"* @_ZSt16__ostream_insertIcSt11char_traitsIcEERSt13basic_ostreamIT_T0_ES6_PKS3_l(%"class.std::basic_ostream"* nonnull align 8 dereferenceable(8), i8*, i64) local_unnamed_addr #0

declare nonnull align 8 dereferenceable(8) %"class.std::basic_ostream"* @_ZNSo3putEc(%"class.std::basic_ostream"* nonnull align 8 dereferenceable(8), i8 signext) local_unnamed_addr #0

declare nonnull align 8 dereferenceable(8) %"class.std::basic_ostream"* @_ZNSo5flushEv(%"class.std::basic_ostream"* nonnull align 8 dereferenceable(8)) local_unnamed_addr #0

; Function Attrs: noreturn
declare void @_ZSt16__throw_bad_castv() local_unnamed_addr #7

declare void @_ZNKSt5ctypeIcE13_M_widen_initEv(%"class.std::ctype"* nonnull align 8 dereferenceable(570)) local_unnamed_addr #0

; Function Attrs: sspstrong uwtable
define internal void @_GLOBAL__sub_I_915.cpp() #8 section ".text.startup" {
  tail call void @_ZNSt8ios_base4InitC1Ev(%"class.std::ios_base::Init"* nonnull align 1 dereferenceable(1) @_ZStL8__ioinit)
  %1 = tail call i32 @__cxa_atexit(void (i8*)* bitcast (void (%"class.std::ios_base::Init"*)* @_ZNSt8ios_base4InitD1Ev to void (i8*)*), i8* getelementptr inbounds (%"class.std::ios_base::Init", %"class.std::ios_base::Init"* @_ZStL8__ioinit, i64 0, i32 0), i8* nonnull @__dso_handle) #9
  ret void
}


!llvm.module.flags = !{!0, !1, !2, !3}
!llvm.ident = !{!4}

!0 = !{i32 1, !"wchar_size", i32 4}
!1 = !{i32 7, !"PIC Level", i32 2}
!2 = !{i32 7, !"PIE Level", i32 2}
!3 = !{i32 7, !"uwtable", i32 1}
!4 = !{!"clang version 13.0.0"}
!5 = distinct !{!5, !6}
!6 = !{!"llvm.loop.mustprogress"}
!7 = !{!8, !8, i64 0}
!8 = !{!"int", !9, i64 0}
!9 = !{!"omnipotent char", !10, i64 0}
!10 = !{!"Simple C++ TBAA"}
!11 = !{!9, !9, i64 0}
!12 = !{!13, !13, i64 0}
!13 = !{!"vtable pointer", !10, i64 0}
!14 = !{!15, !16, i64 240}
!15 = !{!"_ZTSSt9basic_iosIcSt11char_traitsIcEE", !16, i64 216, !9, i64 224, !17, i64 225, !16, i64 232, !16, i64 240, !16, i64 248, !16, i64 256}
!16 = !{!"any pointer", !9, i64 0}
!17 = !{!"bool", !9, i64 0}
!18 = !{!19, !9, i64 56}
!19 = !{!"_ZTSSt5ctypeIcE", !16, i64 16, !17, i64 24, !16, i64 32, !16, i64 40, !16, i64 48, !9, i64 56, !9, i64 57, !9, i64 313, !9, i64 569}
!20 = distinct !{!20, !6}
